target datalayout = "e-m:e-p270:32:32-p271:32:32-p272:64:64-i64:64-i128:128-f80:128-n8:16:32:64-S128"
target triple = "x86_64-pc-linux-gnu"

%struct.avifROData = type { ptr, i64 }
%struct.avifROStream = type { ptr, i64, i64, ptr, ptr }
%struct.avifDecoder = type { i32, i32, i32, i32, i32, i32, i32, i32, i32, i32, i32, ptr, i32, i32, i32, %struct.avifImageTiming, i64, double, i64, i32, i32, %struct.avifIOStats, %struct.avifDiagnostics, ptr, ptr, i32 }
%struct.avifImageTiming = type { i64, double, i64, double, i64 }
%struct.avifIOStats = type { i64, i64 }
%struct.avifDiagnostics = type { [256 x i8] }
%struct.avifImage = type { i32, i32, i32, i32, i32, i32, [3 x ptr], [3 x i32], i32, ptr, i32, i32, i32, %struct.avifRWData, i16, i16, i16, %struct.avifContentLightLevelInformationBox, i32, %struct.avifPixelAspectRatioBox, %struct.avifCleanApertureBox, %struct.avifImageRotation, %struct.avifImageMirror, %struct.avifRWData, %struct.avifRWData }
%struct.avifContentLightLevelInformationBox = type { i16, i16 }
%struct.avifPixelAspectRatioBox = type { i32, i32 }
%struct.avifCleanApertureBox = type { i32, i32, i32, i32, i32, i32, i32, i32 }
%struct.avifImageRotation = type { i8 }
%struct.avifImageMirror = type { i8 }
%struct.avifRWData = type { ptr, i64 }
%struct.avifMeta = type { %struct.avifDecoderItemArray, %struct.avifPropertyArray, %struct.avifRWData, i32, i32 }
%struct.avifDecoderItemArray = type { ptr, i32, i32, i32 }
%struct.avifPropertyArray = type { ptr, i32, i32, i32 }
%struct.avifDecoderItem = type { i32, ptr, [4 x i8], i64, i32, i32, i32, %struct.avifContentType, %struct.avifPropertyArray, %struct.avifExtentArray, %struct.avifRWData, i32, i32, i32, i32, i32, i32, i32, i32, i32, i32, i32 }
%struct.avifContentType = type { [64 x i8] }
%struct.avifExtentArray = type { ptr, i32, i32, i32 }

@.str.104 = private unnamed_addr constant [5 x i8] c"mime\00", align 1
@.str.161 = private unnamed_addr constant [5 x i8] c"Exif\00", align 1
@.str.162 = private unnamed_addr constant [12 x i8] c"Exif header\00", align 1
@xmpContentType = internal constant [20 x i8] c"application/rdf+xml\00", align 16

; Function Attrs: nounwind uwtable
define internal i32 @avifDecoderFindMetadata(ptr noundef %0, ptr noundef %1, ptr noundef %2, i32 noundef %3) #0 {
  %5 = alloca i32, align 4
  %6 = alloca ptr, align 8
  %7 = alloca ptr, align 8
  %8 = alloca ptr, align 8
  %9 = alloca i32, align 4
  %10 = alloca i32, align 4
  %11 = alloca ptr, align 8
  %12 = alloca %struct.avifROData, align 8
  %13 = alloca i32, align 4
  %14 = alloca %struct.avifROStream, align 8
  %15 = alloca %struct.avifROData, align 8
  %16 = alloca i32, align 4
  %17 = alloca i32, align 4
  %18 = alloca %struct.avifROData, align 8
  %19 = alloca i32, align 4
  %20 = alloca i32, align 4
  store ptr %0, ptr %6, align 8
  store ptr %1, ptr %7, align 8
  store ptr %2, ptr %8, align 8
  store i32 %3, ptr %9, align 4
  %21 = load ptr, ptr %6, align 8
  %22 = getelementptr inbounds nuw %struct.avifDecoder, ptr %21, i32 0, i32 5
  %23 = load i32, ptr %22, align 4
  %24 = icmp ne i32 %23, 0
  br i1 %24, label %25, label %31

25:                                               ; preds = %4
  %26 = load ptr, ptr %6, align 8
  %27 = getelementptr inbounds nuw %struct.avifDecoder, ptr %26, i32 0, i32 6
  %28 = load i32, ptr %27, align 8
  %29 = icmp ne i32 %28, 0
  br i1 %29, label %30, label %31

30:                                               ; preds = %25
  store i32 0, ptr %5, align 4
  br label %168

31:                                               ; preds = %25, %4
  store i32 0, ptr %10, align 4
  br label %32

32:                                               ; preds = %164, %31
  %33 = load i32, ptr %10, align 4
  %34 = load ptr, ptr %7, align 8
  %35 = getelementptr inbounds nuw %struct.avifMeta, ptr %34, i32 0, i32 0
  %36 = getelementptr inbounds nuw %struct.avifDecoderItemArray, ptr %35, i32 0, i32 2
  %37 = load i32, ptr %36, align 4
  %38 = icmp ult i32 %33, %37
  br i1 %38, label %39, label %167

39:                                               ; preds = %32
  %40 = load ptr, ptr %7, align 8
  %41 = getelementptr inbounds nuw %struct.avifMeta, ptr %40, i32 0, i32 0
  %42 = getelementptr inbounds nuw %struct.avifDecoderItemArray, ptr %41, i32 0, i32 0
  %43 = load ptr, ptr %42, align 8
  %44 = load i32, ptr %10, align 4
  %45 = zext i32 %44 to i64
  %46 = getelementptr inbounds %struct.avifDecoderItem, ptr %43, i64 %45
  store ptr %46, ptr %11, align 8
  %47 = load ptr, ptr %11, align 8
  %48 = getelementptr inbounds nuw %struct.avifDecoderItem, ptr %47, i32 0, i32 3
  %49 = load i64, ptr %48, align 8
  %50 = icmp ne i64 %49, 0
  br i1 %50, label %52, label %51

51:                                               ; preds = %39
  br label %164

52:                                               ; preds = %39
  %53 = load ptr, ptr %11, align 8
  %54 = getelementptr inbounds nuw %struct.avifDecoderItem, ptr %53, i32 0, i32 19
  %55 = load i32, ptr %54, align 8
  %56 = icmp ne i32 %55, 0
  br i1 %56, label %57, label %58

57:                                               ; preds = %52
  br label %164

58:                                               ; preds = %52
  %59 = load i32, ptr %9, align 4
  %60 = icmp ugt i32 %59, 0
  br i1 %60, label %61, label %68

61:                                               ; preds = %58
  %62 = load ptr, ptr %11, align 8
  %63 = getelementptr inbounds nuw %struct.avifDecoderItem, ptr %62, i32 0, i32 15
  %64 = load i32, ptr %63, align 8
  %65 = load i32, ptr %9, align 4
  %66 = icmp ne i32 %64, %65
  br i1 %66, label %67, label %68

67:                                               ; preds = %61
  br label %164

68:                                               ; preds = %61, %58
  %69 = load ptr, ptr %6, align 8
  %70 = getelementptr inbounds nuw %struct.avifDecoder, ptr %69, i32 0, i32 5
  %71 = load i32, ptr %70, align 4
  %72 = icmp ne i32 %71, 0
  br i1 %72, label %118, label %73

73:                                               ; preds = %68
  %74 = load ptr, ptr %11, align 8
  %75 = getelementptr inbounds nuw %struct.avifDecoderItem, ptr %74, i32 0, i32 2
  %76 = getelementptr inbounds [4 x i8], ptr %75, i64 0, i64 0
  %77 = call i32 @memcmp(ptr noundef %76, ptr noundef @.str.161, i64 noundef 4) #6
  %78 = icmp ne i32 %77, 0
  br i1 %78, label %118, label %79

79:                                               ; preds = %73
  %80 = load ptr, ptr %11, align 8
  %81 = load ptr, ptr %6, align 8
  %82 = getelementptr inbounds nuw %struct.avifDecoder, ptr %81, i32 0, i32 23
  %83 = load ptr, ptr %82, align 8
  %84 = load ptr, ptr %6, align 8
  %85 = getelementptr inbounds nuw %struct.avifDecoder, ptr %84, i32 0, i32 22
  %86 = call i32 @avifDecoderItemRead(ptr noundef %80, ptr noundef %83, ptr noundef %12, i64 noundef 0, i64 noundef 0, ptr noundef %85)
  store i32 %86, ptr %13, align 4
  %87 = load i32, ptr %13, align 4
  %88 = icmp ne i32 %87, 0
  br i1 %88, label %89, label %91

89:                                               ; preds = %79
  %90 = load i32, ptr %13, align 4
  store i32 %90, ptr %5, align 4
  br label %168

91:                                               ; preds = %79
  %92 = getelementptr inbounds nuw %struct.avifROData, ptr %12, i32 0, i32 0
  %93 = load ptr, ptr %92, align 8
  %94 = getelementptr inbounds nuw %struct.avifROData, ptr %15, i32 0, i32 0
  store ptr %93, ptr %94, align 8
  %95 = getelementptr inbounds nuw %struct.avifROData, ptr %12, i32 0, i32 1
  %96 = load i64, ptr %95, align 8
  %97 = getelementptr inbounds nuw %struct.avifROData, ptr %15, i32 0, i32 1
  store i64 %96, ptr %97, align 8
  %98 = load ptr, ptr %6, align 8
  %99 = getelementptr inbounds nuw %struct.avifDecoder, ptr %98, i32 0, i32 22
  call void @avifROStreamStart(ptr noundef %14, ptr noundef %15, ptr noundef %99, ptr noundef @.str.162)
  br label %100

100:                                              ; preds = %91
  %101 = call i32 @avifROStreamReadU32(ptr noundef %14, ptr noundef %16)
  %102 = icmp ne i32 %101, 0
  br i1 %102, label %104, label %103

103:                                              ; preds = %100
  store i32 9, ptr %5, align 4
  br label %168

104:                                              ; preds = %100
  br label %105

105:                                              ; preds = %104
  br label %106

106:                                              ; preds = %105
  %107 = load ptr, ptr %8, align 8
  %108 = getelementptr inbounds nuw %struct.avifImage, ptr %107, i32 0, i32 23
  %109 = call ptr @avifROStreamCurrent(ptr noundef %14)
  %110 = call i64 @avifROStreamRemainingBytes(ptr noundef %14)
  %111 = call i32 @avifRWDataSet(ptr noundef %108, ptr noundef %109, i64 noundef %110)
  store i32 %111, ptr %17, align 4
  %112 = load i32, ptr %17, align 4
  %113 = icmp ne i32 %112, 0
  br i1 %113, label %114, label %116

114:                                              ; preds = %106
  %115 = load i32, ptr %17, align 4
  store i32 %115, ptr %5, align 4
  br label %168

116:                                              ; preds = %106
  br label %117

117:                                              ; preds = %116
  br label %163

118:                                              ; preds = %73, %68
  %119 = load ptr, ptr %6, align 8
  %120 = getelementptr inbounds nuw %struct.avifDecoder, ptr %119, i32 0, i32 6
  %121 = load i32, ptr %120, align 8
  %122 = icmp ne i32 %121, 0
  br i1 %122, label %162, label %123

123:                                              ; preds = %118
  %124 = load ptr, ptr %11, align 8
  %125 = getelementptr inbounds nuw %struct.avifDecoderItem, ptr %124, i32 0, i32 2
  %126 = getelementptr inbounds [4 x i8], ptr %125, i64 0, i64 0
  %127 = call i32 @memcmp(ptr noundef %126, ptr noundef @.str.104, i64 noundef 4) #6
  %128 = icmp ne i32 %127, 0
  br i1 %128, label %162, label %129

129:                                              ; preds = %123
  %130 = load ptr, ptr %11, align 8
  %131 = getelementptr inbounds nuw %struct.avifDecoderItem, ptr %130, i32 0, i32 7
  %132 = getelementptr inbounds nuw %struct.avifContentType, ptr %131, i32 0, i32 0
  %133 = getelementptr inbounds [64 x i8], ptr %132, i64 0, i64 0
  %134 = call i32 @memcmp(ptr noundef %133, ptr noundef @xmpContentType, i64 noundef 20) #6
  %135 = icmp ne i32 %134, 0
  br i1 %135, label %162, label %136

136:                                              ; preds = %129
  %137 = load ptr, ptr %11, align 8
  %138 = load ptr, ptr %6, align 8
  %139 = getelementptr inbounds nuw %struct.avifDecoder, ptr %138, i32 0, i32 23
  %140 = load ptr, ptr %139, align 8
  %141 = load ptr, ptr %6, align 8
  %142 = getelementptr inbounds nuw %struct.avifDecoder, ptr %141, i32 0, i32 22
  %143 = call i32 @avifDecoderItemRead(ptr noundef %137, ptr noundef %140, ptr noundef %18, i64 noundef 0, i64 noundef 0, ptr noundef %142)
  store i32 %143, ptr %19, align 4
  %144 = load i32, ptr %19, align 4
  %145 = icmp ne i32 %144, 0
  br i1 %145, label %146, label %148

146:                                              ; preds = %136
  %147 = load i32, ptr %19, align 4
  store i32 %147, ptr %5, align 4
  br label %168

148:                                              ; preds = %136
  br label %149

149:                                              ; preds = %148
  %150 = load ptr, ptr %8, align 8
  %151 = getelementptr inbounds nuw %struct.avifROData, ptr %18, i32 0, i32 0
  %152 = load ptr, ptr %151, align 8
  %153 = getelementptr inbounds nuw %struct.avifROData, ptr %18, i32 0, i32 1
  %154 = load i64, ptr %153, align 8
  %155 = call i32 @avifImageSetMetadataXMP(ptr noundef %150, ptr noundef %152, i64 noundef %154)
  store i32 %155, ptr %20, align 4
  %156 = load i32, ptr %20, align 4
  %157 = icmp ne i32 %156, 0
  br i1 %157, label %158, label %160

158:                                              ; preds = %149
  %159 = load i32, ptr %20, align 4
  store i32 %159, ptr %5, align 4
  br label %168

160:                                              ; preds = %149
  br label %161

161:                                              ; preds = %160
  br label %162

162:                                              ; preds = %161, %129, %123, %118
  br label %163

163:                                              ; preds = %162, %117
  br label %164

164:                                              ; preds = %163, %67, %57, %51
  %165 = load i32, ptr %10, align 4
  %166 = add i32 %165, 1
  store i32 %166, ptr %10, align 4
  br label %32, !llvm.loop !27

167:                                              ; preds = %32
  store i32 0, ptr %5, align 4
  br label %168

168:                                              ; preds = %167, %158, %146, %114, %103, %89, %30
  %169 = load i32, ptr %5, align 4
  ret i32 %169
}