; Function Attrs: nounwind uwtable
define internal fastcc i32 @avifDecoderFindMetadata(ptr noundef %0, ptr noundef readonly captures(none) %1, ptr noundef %2, i32 noundef %3) unnamed_addr #0 {
  %5 = alloca %struct.avifROData, align 8
  %6 = alloca %struct.avifROStream, align 8
  %7 = alloca %struct.avifROData, align 8
  %8 = alloca i32, align 4
  %9 = alloca %struct.avifROData, align 8
  %10 = getelementptr inbounds nuw i8, ptr %0, i64 20
  %11 = load i32, ptr %10, align 4
  %.not = icmp eq i32 %11, 0
  br i1 %.not, label %15, label %12

12:                                               ; preds = %4
  %13 = getelementptr inbounds nuw i8, ptr %0, i64 24
  %14 = load i32, ptr %13, align 8
  %.not40 = icmp eq i32 %14, 0
  br i1 %.not40, label %15, label %.loopexit

15:                                               ; preds = %12, %4
  %16 = getelementptr inbounds nuw i8, ptr %0, i64 416
  %17 = getelementptr inbounds nuw i8, ptr %2, i64 168
  %18 = getelementptr inbounds nuw i8, ptr %1, i64 12
  %19 = load i32, ptr %18, align 4
  %.not68 = icmp eq i32 %19, 0
  br i1 %.not68, label %.loopexit, label %.lr.ph

.lr.ph:                                           ; preds = %15
  %.not43 = icmp eq i32 %3, 0
  %20 = getelementptr inbounds nuw i8, ptr %0, i64 24
  %21 = getelementptr inbounds nuw i8, ptr %0, i64 160
  %22 = getelementptr inbounds nuw i8, ptr %9, i64 8
  %23 = getelementptr inbounds nuw i8, ptr %5, i64 8
  %24 = getelementptr inbounds nuw i8, ptr %7, i64 8
  br label %25

25:                                               ; preds = %.lr.ph, %65
  %indvars.iv = phi i64 [ 0, %.lr.ph ], [ %indvars.iv.next, %65 ]
  %26 = load ptr, ptr %1, align 8
  %27 = getelementptr inbounds nuw %struct.avifDecoderItem, ptr %26, i64 %indvars.iv
  %28 = getelementptr inbounds nuw i8, ptr %27, i64 24
  %29 = load i64, ptr %28, align 8
  %.not41 = icmp eq i64 %29, 0
  br i1 %.not41, label %65, label %30

30:                                               ; preds = %25
  %31 = getelementptr inbounds nuw i8, ptr %27, i64 208
  %32 = load i32, ptr %31, align 8
  %.not42 = icmp eq i32 %32, 0
  br i1 %.not42, label %33, label %65

33:                                               ; preds = %30
  br i1 %.not43, label %37, label %34

34:                                               ; preds = %33
  %35 = getelementptr inbounds nuw i8, ptr %27, i64 192
  %36 = load i32, ptr %35, align 8
  %.not44 = icmp eq i32 %36, %3
  br i1 %.not44, label %37, label %65

37:                                               ; preds = %34, %33
  %38 = load i32, ptr %10, align 4
  %.not45 = icmp eq i32 %38, 0
  br i1 %.not45, label %39, label %52

39:                                               ; preds = %37
  %40 = getelementptr inbounds nuw i8, ptr %27, i64 16
  %bcmp = call i32 @bcmp(ptr noundef nonnull dereferenceable(4) %40, ptr noundef nonnull dereferenceable(4) @.str.161, i64 4)
  %.not46 = icmp eq i32 %bcmp, 0
  br i1 %.not46, label %41, label %52

41:                                               ; preds = %39
  %42 = load ptr, ptr %16, align 8
  %43 = call fastcc i32 @avifDecoderItemRead(ptr noundef nonnull %27, ptr noundef %42, ptr noundef %5, i64 noundef 0, i64 noundef 0, ptr noundef nonnull %21)
  %.not47 = icmp eq i32 %43, 0
  br i1 %.not47, label %44, label %.loopexit

44:                                               ; preds = %41
  %45 = load ptr, ptr %5, align 8
  store ptr %45, ptr %7, align 8
  %46 = load i64, ptr %23, align 8
  store i64 %46, ptr %24, align 8
  call void @avifROStreamStart(ptr noundef nonnull %6, ptr noundef nonnull %7, ptr noundef nonnull %21, ptr noundef nonnull @.str.162) #13
  %47 = call i32 @avifROStreamReadU32(ptr noundef nonnull %6, ptr noundef nonnull %8) #13
  %.not48 = icmp eq i32 %47, 0
  br i1 %.not48, label %.loopexit, label %48

48:                                               ; preds = %44
  %49 = call ptr @avifROStreamCurrent(ptr noundef nonnull %6) #13
  %50 = call i64 @avifROStreamRemainingBytes(ptr noundef nonnull %6) #13
  %51 = call i32 @avifRWDataSet(ptr noundef nonnull %17, ptr noundef %49, i64 noundef %50) #13
  %.not49 = icmp eq i32 %51, 0
  br i1 %.not49, label %65, label %.loopexit

52:                                               ; preds = %39, %37
  %53 = load i32, ptr %20, align 8
  %.not50 = icmp eq i32 %53, 0
  br i1 %.not50, label %54, label %65

54:                                               ; preds = %52
  %55 = getelementptr inbounds nuw i8, ptr %27, i64 16
  %bcmp51 = call i32 @bcmp(ptr noundef nonnull dereferenceable(4) %55, ptr noundef nonnull dereferenceable(4) @.str.104, i64 4)
  %.not52 = icmp eq i32 %bcmp51, 0
  br i1 %.not52, label %56, label %65

56:                                               ; preds = %54
  %57 = getelementptr inbounds nuw i8, ptr %27, i64 44
  %bcmp53 = call i32 @bcmp(ptr noundef nonnull dereferenceable(20) %57, ptr noundef nonnull dereferenceable(20) @xmpContentType, i64 20)
  %.not54 = icmp eq i32 %bcmp53, 0
  br i1 %.not54, label %58, label %65

58:                                               ; preds = %56
  %59 = load ptr, ptr %16, align 8
  %60 = call fastcc i32 @avifDecoderItemRead(ptr noundef nonnull %27, ptr noundef %59, ptr noundef %9, i64 noundef 0, i64 noundef 0, ptr noundef nonnull %21)
  %.not55 = icmp eq i32 %60, 0
  br i1 %.not55, label %61, label %.loopexit

61:                                               ; preds = %58
  %62 = load ptr, ptr %9, align 8
  %63 = load i64, ptr %22, align 8
  %64 = call i32 @avifImageSetMetadataXMP(ptr noundef %2, ptr noundef %62, i64 noundef %63) #13
  %.not56 = icmp eq i32 %64, 0
  br i1 %.not56, label %65, label %.loopexit

65:                                               ; preds = %48, %61, %56, %54, %52, %34, %30, %25
  %indvars.iv.next = add nuw nsw i64 %indvars.iv, 1
  %66 = load i32, ptr %18, align 4
  %67 = zext i32 %66 to i64
  %68 = icmp samesign ult i64 %indvars.iv.next, %67
  br i1 %68, label %25, label %.loopexit, !llvm.loop !47

.loopexit:                                        ; preds = %41, %44, %48, %58, %61, %65, %15, %12
  %.0 = phi i32 [ 0, %12 ], [ 0, %15 ], [ %43, %41 ], [ 9, %44 ], [ %51, %48 ], [ %60, %58 ], [ %64, %61 ], [ 0, %65 ]
  ret i32 %.0
}